target datalayout = "e-m:e-p270:32:32-p271:32:32-p272:64:64-i64:64-i128:128-f80:128-n8:16:32:64-S128"
target triple = "x86_64-pc-linux-gnu"

%"class.icu_77::MaybeStackArray" = type <{ ptr, i32, i8, [40 x i8], [3 x i8] }>
%struct.CollatorSpec = type { [6 x %"class.icu_77::CharString"], %"class.icu_77::CharString", [8 x i32], i32, [32 x i16], i32, i8, [7 x i8], [17 x %"class.icu_77::CharString"] }
%"class.icu_77::CharString" = type { %"class.icu_77::MaybeStackArray", i32, [4 x i8] }

; Function Attrs: inlinehint mustprogress nounwind uwtable
define internal noundef signext i8 @_ZL9U_SUCCESS10UErrorCode(i32 noundef %0) #2 {
  %2 = alloca i32, align 4
  store i32 %0, ptr %2, align 4, !tbaa !15
  %3 = load i32, ptr %2, align 4, !tbaa !15
  %4 = icmp sle i32 %3, 0
  %5 = zext i1 %4 to i8
  ret i8 %5
}

; Function Attrs: mustprogress uwtable
define internal noundef ptr @_ZL21_processLocaleElementP12CollatorSpecjPKcP10UErrorCode(ptr noundef %0, i32 noundef %1, ptr noundef %2, ptr noundef %3) #1 {
  %5 = alloca ptr, align 8
  %6 = alloca i32, align 4
  %7 = alloca ptr, align 8
  %8 = alloca ptr, align 8
  store ptr %0, ptr %5, align 8, !tbaa !35
  store i32 %1, ptr %6, align 4, !tbaa !14
  store ptr %2, ptr %7, align 8, !tbaa !17
  store ptr %3, ptr %8, align 8, !tbaa !22
  br label %9

9:                                                ; preds = %55, %4
  %10 = load i32, ptr %6, align 4, !tbaa !14
  %11 = icmp eq i32 %10, 0
  br i1 %11, label %18, label %12

12:                                               ; preds = %9
  %13 = load i32, ptr %6, align 4, !tbaa !14
  %14 = icmp eq i32 %13, 4
  br i1 %14, label %18, label %15

15:                                               ; preds = %12
  %16 = load i32, ptr %6, align 4, !tbaa !14
  %17 = icmp eq i32 %16, 5
  br i1 %17, label %18, label %29

18:                                               ; preds = %15, %12, %9
  %19 = load ptr, ptr %5, align 8, !tbaa !35
  %20 = getelementptr inbounds nuw %struct.CollatorSpec, ptr %19, i32 0, i32 0
  %21 = load i32, ptr %6, align 4, !tbaa !14
  %22 = zext i32 %21 to i64
  %23 = getelementptr inbounds nuw [6 x %"class.icu_77::CharString"], ptr %20, i64 0, i64 %22
  %24 = load ptr, ptr %7, align 8, !tbaa !17
  %25 = load i8, ptr %24, align 1, !tbaa !23
  %26 = call signext i8 @uprv_asciitolower_77(i8 noundef signext %25)
  %27 = load ptr, ptr %8, align 8, !tbaa !22
  %28 = call noundef nonnull align 8 dereferenceable(60) ptr @_ZN6icu_7710CharString6appendEcR10UErrorCode(ptr noundef nonnull align 8 dereferenceable(60) %23, i8 noundef signext %26, ptr noundef nonnull align 4 dereferenceable(4) %27)
  br label %39

29:                                               ; preds = %15
  %30 = load ptr, ptr %5, align 8, !tbaa !35
  %31 = getelementptr inbounds nuw %struct.CollatorSpec, ptr %30, i32 0, i32 0
  %32 = load i32, ptr %6, align 4, !tbaa !14
  %33 = zext i32 %32 to i64
  %34 = getelementptr inbounds nuw [6 x %"class.icu_77::CharString"], ptr %31, i64 0, i64 %33
  %35 = load ptr, ptr %7, align 8, !tbaa !17
  %36 = load i8, ptr %35, align 1, !tbaa !23
  %37 = load ptr, ptr %8, align 8, !tbaa !22
  %38 = call noundef nonnull align 8 dereferenceable(60) ptr @_ZN6icu_7710CharString6appendEcR10UErrorCode(ptr noundef nonnull align 8 dereferenceable(60) %34, i8 noundef signext %36, ptr noundef nonnull align 4 dereferenceable(4) %37)
  br label %39

39:                                               ; preds = %29, %18
  br label %40

40:                                               ; preds = %39
  %41 = load ptr, ptr %7, align 8, !tbaa !17
  %42 = getelementptr inbounds nuw i8, ptr %41, i32 1
  store ptr %42, ptr %7, align 8, !tbaa !17
  %43 = load i8, ptr %42, align 1, !tbaa !23
  %44 = sext i8 %43 to i32
  %45 = icmp ne i32 %44, 95
  br i1 %45, label %46, label %55

46:                                               ; preds = %40
  %47 = load ptr, ptr %7, align 8, !tbaa !17
  %48 = load i8, ptr %47, align 1, !tbaa !23
  %49 = icmp ne i8 %48, 0
  br i1 %49, label %50, label %55

50:                                               ; preds = %46
  %51 = load ptr, ptr %8, align 8, !tbaa !22
  %52 = load i32, ptr %51, align 4, !tbaa !15
  %53 = call noundef signext i8 @_ZL9U_SUCCESS10UErrorCode(i32 noundef %52)
  %54 = icmp ne i8 %53, 0
  br label %55

55:                                               ; preds = %50, %46, %40
  %56 = phi i1 [ false, %46 ], [ false, %40 ], [ %54, %50 ]
  br i1 %56, label %9, label %57, !llvm.loop !75

57:                                               ; preds = %55
  %58 = load ptr, ptr %7, align 8, !tbaa !17
  ret ptr %58
}