; Function Attrs: mustprogress uwtable
define internal noundef nonnull ptr @_ZL21_processLocaleElementP12CollatorSpecjPKcP10UErrorCode(ptr noundef %0, i32 noundef %1, ptr noundef readonly %2, ptr noundef %3) #1 {
  %5 = zext i32 %1 to i64
  %6 = getelementptr inbounds nuw [6 x %"class.icu_77::CharString"], ptr %0, i64 0, i64 %5
  switch i32 %1, label %.split.preheader [
    i32 5, label %.split.us
    i32 4, label %.split.us
    i32 0, label %.split.us
  ]

.split.preheader:                                 ; preds = %4
  %.pre22 = load i8, ptr %2, align 1, !tbaa !22
  br label %.split

.split.us:                                        ; preds = %4, %4, %4
  %.pre = load i8, ptr %2, align 1, !tbaa !22
  br label %7

7:                                                ; preds = %13, %.split.us
  %8 = phi i8 [ %.pre, %.split.us ], [ %12, %13 ]
  %.0.us = phi ptr [ %2, %.split.us ], [ %11, %13 ]
  %9 = tail call signext i8 @uprv_asciitolower_77(i8 noundef signext %8)
  %10 = tail call noundef nonnull align 8 dereferenceable(60) ptr @_ZN6icu_7710CharString6appendEcR10UErrorCode(ptr noundef nonnull align 8 dereferenceable(60) %6, i8 noundef signext %9, ptr noundef nonnull align 4 dereferenceable(4) %3)
  %11 = getelementptr inbounds nuw i8, ptr %.0.us, i64 1
  %12 = load i8, ptr %11, align 1, !tbaa !22
  switch i8 %12, label %13 [
    i8 95, label %.critedge
    i8 0, label %.critedge
  ]

13:                                               ; preds = %7
  %14 = load i32, ptr %3, align 4, !tbaa !13
  %15 = icmp sgt i32 %14, 0
  br i1 %15, label %.critedge, label %7, !llvm.loop !48

.split:                                           ; preds = %.split.preheader, %20
  %16 = phi i8 [ %19, %20 ], [ %.pre22, %.split.preheader ]
  %.0 = phi ptr [ %18, %20 ], [ %2, %.split.preheader ]
  %17 = tail call noundef nonnull align 8 dereferenceable(60) ptr @_ZN6icu_7710CharString6appendEcR10UErrorCode(ptr noundef nonnull align 8 dereferenceable(60) %6, i8 noundef signext %16, ptr noundef nonnull align 4 dereferenceable(4) %3)
  %18 = getelementptr inbounds nuw i8, ptr %.0, i64 1
  %19 = load i8, ptr %18, align 1, !tbaa !22
  switch i8 %19, label %20 [
    i8 95, label %.critedge
    i8 0, label %.critedge
  ]

20:                                               ; preds = %.split
  %21 = load i32, ptr %3, align 4, !tbaa !13
  %22 = icmp sgt i32 %21, 0
  br i1 %22, label %.critedge, label %.split, !llvm.loop !48

.critedge:                                        ; preds = %7, %7, %13, %20, %.split, %.split
  %.us-phi = phi ptr [ %18, %.split ], [ %18, %.split ], [ %18, %20 ], [ %11, %13 ], [ %11, %7 ], [ %11, %7 ]
  ret ptr %.us-phi
}